target datalayout = "e-m:e-p270:32:32-p271:32:32-p272:64:64-i64:64-i128:128-f80:128-n8:16:32:64-S128"
target triple = "x86_64-pc-linux-gnu"

%struct.Mv = type { i32, i32 }
%struct.PredWeightTable = type { [2 x i8], [2 x i8], [2 x [2 x [15 x i8]]], [2 x [3 x [15 x i16]]], [2 x [3 x [15 x i16]]] }
%struct.VVCFrameContext = type { ptr, [17 x %struct.VVCFrame], ptr, ptr, %struct.VVCFrameParamSets, ptr, i32, i32, ptr, %struct.VVCDSPContext, %struct.VideoDSPContext, ptr, i64, ptr, ptr, ptr, ptr, %struct.anon.1 }
%struct.VVCFrame = type { ptr, ptr, ptr, ptr, ptr, ptr, i32, i32, i32, %struct.VVCWindow, i32, i32, ptr, ptr, i16, i8, ptr }
%struct.VVCWindow = type { i16, i16, i16, i16 }
%struct.VVCFrameParamSets = type { ptr, ptr, %struct.VVCPH, [8 x ptr], %struct.VVCLMCS, ptr }
%struct.VVCPH = type { ptr, ptr, i32, i32, i8, [3 x i16], i8, [3 x i16], %struct.PredWeightTable }
%struct.VVCLMCS = type { i8, i8, %union.anon, %union.anon, [17 x i16], [16 x i16] }
%union.anon = type { [4096 x i16] }
%struct.VVCDSPContext = type { %struct.VVCInterDSPContext, %struct.VVCIntraDSPContext, %struct.VVCItxDSPContext, %struct.VVCLMCSDSPContext, %struct.VVCLFDSPContext, %struct.VVCSAODSPContext, %struct.VVCALFDSPContext }
%struct.VVCInterDSPContext = type { [2 x [7 x [2 x [2 x ptr]]]], [2 x [7 x [2 x [2 x ptr]]]], [2 x [7 x [2 x [2 x ptr]]]], [2 x [7 x ptr]], [2 x [7 x ptr]], [2 x [7 x ptr]], ptr, ptr, ptr, ptr, ptr, ptr, ptr, ptr, ptr, ptr, ptr, [2 x [2 x ptr]] }
%struct.VVCIntraDSPContext = type { ptr, ptr, ptr, ptr, ptr, ptr, ptr, ptr, ptr, ptr }
%struct.VVCItxDSPContext = type { ptr, ptr, [3 x [6 x ptr]], ptr, ptr }
%struct.VVCLMCSDSPContext = type { ptr }
%struct.VVCLFDSPContext = type { [2 x ptr], [2 x ptr], [2 x ptr] }
%struct.VVCSAODSPContext = type { [9 x ptr], [9 x ptr], [2 x ptr] }
%struct.VVCALFDSPContext = type { [2 x ptr], ptr, ptr, ptr }
%struct.VideoDSPContext = type { ptr, ptr }
%struct.anon.1 = type { ptr, ptr, ptr, ptr, [2 x ptr], [2 x ptr], [2 x ptr], [2 x ptr], [2 x ptr], [3 x ptr], ptr, ptr, [2 x ptr], ptr, ptr, [2 x ptr], ptr, ptr, ptr, [2 x ptr], ptr, [3 x ptr], ptr, [2 x ptr], [2 x ptr], [2 x ptr], [2 x [3 x ptr]], [2 x ptr], [2 x ptr], [3 x ptr], [3 x ptr], [3 x [2 x ptr]], [3 x [2 x ptr]], ptr, ptr, ptr, [3 x ptr], %struct.anon.2 }
%struct.anon.2 = type { i32, i32, i32, i32, i32, i32, i32, i32, i32, i32, i32, i32 }
%struct.VVCPPS = type { ptr, [3 x i8], [6 x [3 x i8]], i16, i16, [1000 x i16], [1000 x i16], i16, i16, i16, i16, i32, i16, i16, i16, i16, ptr, ptr, ptr, ptr, ptr, i16, i16, i16, i16, i16, [1000 x i16], [1000 x i16], [1000 x i16], [1000 x i16] }
%struct.MvField = type { [2 x %struct.Mv], [2 x i8], i8, i8, i8, i8 }

; Function Attrs: nounwind uwtable
define ptr @ff_vvc_get_mvf(ptr noundef %0, i32 noundef %1, i32 noundef %2) #0 {
  %4 = alloca ptr, align 8
  %5 = alloca i32, align 4
  %6 = alloca i32, align 4
  %7 = alloca i32, align 4
  %8 = alloca ptr, align 8
  store ptr %0, ptr %4, align 8, !tbaa !78
  store i32 %1, ptr %5, align 4, !tbaa !9
  store i32 %2, ptr %6, align 4, !tbaa !9
  call void @llvm.lifetime.start.p0(i64 4, ptr %7) #9
  %9 = load ptr, ptr %4, align 8, !tbaa !78
  %10 = getelementptr inbounds nuw %struct.VVCFrameContext, ptr %9, i32 0, i32 4
  %11 = getelementptr inbounds nuw %struct.VVCFrameParamSets, ptr %10, i32 0, i32 1
  %12 = load ptr, ptr %11, align 8, !tbaa !80
  %13 = getelementptr inbounds nuw %struct.VVCPPS, ptr %12, i32 0, i32 12
  %14 = load i16, ptr %13, align 8, !tbaa !81
  %15 = zext i16 %14 to i32
  store i32 %15, ptr %7, align 4, !tbaa !9
  call void @llvm.lifetime.start.p0(i64 8, ptr %8) #9
  %16 = load ptr, ptr %4, align 8, !tbaa !78
  %17 = getelementptr inbounds nuw %struct.VVCFrameContext, ptr %16, i32 0, i32 17
  %18 = getelementptr inbounds nuw %struct.anon.1, ptr %17, i32 0, i32 20
  %19 = load ptr, ptr %18, align 8, !tbaa !79
  store ptr %19, ptr %8, align 8, !tbaa !77
  %20 = load ptr, ptr %8, align 8, !tbaa !77
  %21 = load i32, ptr %6, align 4, !tbaa !9
  %22 = ashr i32 %21, 2
  %23 = load i32, ptr %7, align 4, !tbaa !9
  %24 = mul nsw i32 %22, %23
  %25 = load i32, ptr %5, align 4, !tbaa !9
  %26 = ashr i32 %25, 2
  %27 = add nsw i32 %24, %26
  %28 = sext i32 %27 to i64
  %29 = getelementptr inbounds %struct.MvField, ptr %20, i64 %28
  call void @llvm.lifetime.end.p0(i64 8, ptr %8) #9
  call void @llvm.lifetime.end.p0(i64 4, ptr %7) #9
  ret ptr %29
}