; Function Attrs: mustprogress nofree norecurse nosync nounwind willreturn memory(read, inaccessiblemem: none) uwtable
define ptr @ff_vvc_get_mvf(ptr noundef readonly captures(none) %0, i32 noundef %1, i32 noundef %2) local_unnamed_addr #9 {
  %4 = getelementptr inbounds nuw i8, ptr %0, i64 1936
  %5 = load ptr, ptr %4, align 8, !tbaa !72
  %6 = getelementptr inbounds nuw i8, ptr %5, i64 4048
  %7 = load i16, ptr %6, align 8, !tbaa !73
  %8 = zext i16 %7 to i32
  %9 = getelementptr inbounds nuw i8, ptr %0, i64 21576
  %10 = load ptr, ptr %9, align 8, !tbaa !71
  %11 = ashr i32 %2, 2
  %12 = mul nsw i32 %11, %8
  %13 = ashr i32 %1, 2
  %14 = add nsw i32 %12, %13
  %15 = sext i32 %14 to i64
  %16 = getelementptr inbounds %struct.MvField, ptr %10, i64 %15
  ret ptr %16
}